; Function Attrs: null_pointer_is_valid sspstrong uwtable
define internal i32 @dissect_hip_in_udp(ptr noundef %0, ptr noundef %1, ptr noundef %2, ptr readnone captures(none) %3) #0 {
  %5 = tail call i32 @tvb_captured_length(ptr noundef %0)
  %6 = icmp ult i32 %5, 4
  br i1 %6, label %12, label %7

7:                                                ; preds = %4
  %8 = tail call i32 @tvb_get_ntohl(ptr noundef %0, i32 noundef 0)
  %.not = icmp eq i32 %8, 0
  br i1 %.not, label %9, label %12

9:                                                ; preds = %7
  %10 = tail call ptr @tvb_new_subset_remaining(ptr noundef %0, i32 noundef 4)
  tail call fastcc void @dissect_hip_common(ptr noundef %10, ptr noundef %1, ptr noundef %2, i1 noundef zeroext true)
  %11 = tail call i32 @tvb_captured_length(ptr noundef %0)
  br label %12

12:                                               ; preds = %7, %4, %9
  %.0 = phi i32 [ %11, %9 ], [ 0, %4 ], [ 0, %7 ]
  ret i32 %.0
}